target datalayout = "e-m:e-p270:32:32-p271:32:32-p272:64:64-i64:64-i128:128-f80:128-n8:16:32:64-S128"
target triple = "x86_64-pc-linux-gnu"

%"class.std::__cxx11::basic_string" = type { %"struct.std::__cxx11::basic_string<char>::_Alloc_hider", i64, %union.anon }
%"struct.std::__cxx11::basic_string<char>::_Alloc_hider" = type { ptr }
%union.anon = type { i64, [8 x i8] }
%"struct.std::_Rb_tree_header" = type { %"struct.std::_Rb_tree_node_base", i64 }
%"struct.std::_Rb_tree_node_base" = type { i32, ptr, ptr, ptr }
%"class.gmx::OptionInfo" = type { ptr, ptr }
%"class.gmx::FlagsTemplate" = type { i64 }
%"class.gmx::AbstractOptionStorage.base" = type <{ ptr, %"class.std::__cxx11::basic_string", %"class.std::__cxx11::basic_string", %"class.gmx::FlagsTemplate", ptr, i32, i32, i8, i8 }>
%"class.gmx::OptionValueConverterSimple.49" = type { %"class.std::map.50" }
%"class.std::map.50" = type { %"class.std::_Rb_tree.51" }
%"class.std::_Rb_tree.51" = type { %"struct.std::_Rb_tree<std::type_index, std::pair<const std::type_index, std::function<long (const gmx::Any &)>>, std::_Select1st<std::pair<const std::type_index, std::function<long (const gmx::Any &)>>>, std::less<std::type_index>>::_Rb_tree_impl" }
%"struct.std::_Rb_tree<std::type_index, std::pair<const std::type_index, std::function<long (const gmx::Any &)>>, std::_Select1st<std::pair<const std::type_index, std::function<long (const gmx::Any &)>>>, std::less<std::type_index>>::_Rb_tree_impl" = type { [8 x i8], %"struct.std::_Rb_tree_header" }
%"class.gmx::Int64OptionStorage" = type { %"class.gmx::OptionStorageTemplateSimple.base.81", %"class.gmx::Int64OptionInfo" }
%"class.gmx::OptionStorageTemplateSimple.base.81" = type <{ %"class.gmx::OptionStorageTemplate.59", %"class.gmx::OptionValueConverterSimple.49", i8 }>
%"class.gmx::OptionStorageTemplate.59" = type { %"class.gmx::AbstractOptionStorage.base", %"class.std::vector.60", %"class.std::unique_ptr.65", %"class.std::unique_ptr.73" }
%"class.std::vector.60" = type { %"struct.std::_Vector_base.61" }
%"struct.std::_Vector_base.61" = type { %"struct.std::_Vector_base<long, std::allocator<long>>::_Vector_impl" }
%"struct.std::_Vector_base<long, std::allocator<long>>::_Vector_impl" = type { %"struct.std::_Vector_base<long, std::allocator<long>>::_Vector_impl_data" }
%"struct.std::_Vector_base<long, std::allocator<long>>::_Vector_impl_data" = type { ptr, ptr, ptr }
%"class.std::unique_ptr.65" = type { %"struct.std::__uniq_ptr_data.66" }
%"struct.std::__uniq_ptr_data.66" = type { %"class.std::__uniq_ptr_impl.67" }
%"class.std::__uniq_ptr_impl.67" = type { %"class.std::tuple.68" }
%"class.std::tuple.68" = type { %"struct.std::_Tuple_impl.69" }
%"struct.std::_Tuple_impl.69" = type { %"struct.std::_Head_base.72" }
%"struct.std::_Head_base.72" = type { ptr }
%"class.std::unique_ptr.73" = type { %"struct.std::__uniq_ptr_data.74" }
%"struct.std::__uniq_ptr_data.74" = type { %"class.std::__uniq_ptr_impl.75" }
%"class.std::__uniq_ptr_impl.75" = type { %"class.std::tuple.76" }
%"class.std::tuple.76" = type { %"struct.std::_Tuple_impl.77" }
%"struct.std::_Tuple_impl.77" = type { %"struct.std::_Head_base.80" }
%"struct.std::_Head_base.80" = type { ptr }
%"class.gmx::Int64OptionInfo" = type { %"class.gmx::OptionInfo" }
%"class.gmx::OptionStorageTemplateSimple.58" = type <{ %"class.gmx::OptionStorageTemplate.59", %"class.gmx::OptionValueConverterSimple.49", i8, [7 x i8] }>

@_ZN3gmx15Int64OptionInfoC1EPNS_18Int64OptionStorageE = unnamed_addr alias void (ptr, ptr), ptr @_ZN3gmx15Int64OptionInfoC2EPNS_18Int64OptionStorageE

; Function Attrs: noinline noreturn nounwind uwtable
define linkonce_odr hidden void @__clang_call_terminate(ptr noundef %0) #10 comdat {
  %2 = call ptr @__cxa_begin_catch(ptr %0) #19
  call void @_ZSt9terminatev() #23
  unreachable
}

; Function Attrs: mustprogress nounwind uwtable
define linkonce_odr void @_ZNSt15_Rb_tree_header8_M_resetEv(ptr noundef nonnull align 8 dereferenceable(40) %0) #2 comdat align 2 {
  %2 = alloca ptr, align 8
  store ptr %0, ptr %2, align 8, !tbaa !541
  %3 = load ptr, ptr %2, align 8
  %4 = getelementptr inbounds nuw %"struct.std::_Rb_tree_header", ptr %3, i32 0, i32 0
  %5 = getelementptr inbounds nuw %"struct.std::_Rb_tree_node_base", ptr %4, i32 0, i32 1
  store ptr null, ptr %5, align 8, !tbaa !546
  %6 = getelementptr inbounds nuw %"struct.std::_Rb_tree_header", ptr %3, i32 0, i32 0
  %7 = getelementptr inbounds nuw %"struct.std::_Rb_tree_header", ptr %3, i32 0, i32 0
  %8 = getelementptr inbounds nuw %"struct.std::_Rb_tree_node_base", ptr %7, i32 0, i32 2
  store ptr %6, ptr %8, align 8, !tbaa !547
  %9 = getelementptr inbounds nuw %"struct.std::_Rb_tree_header", ptr %3, i32 0, i32 0
  %10 = getelementptr inbounds nuw %"struct.std::_Rb_tree_header", ptr %3, i32 0, i32 0
  %11 = getelementptr inbounds nuw %"struct.std::_Rb_tree_node_base", ptr %10, i32 0, i32 3
  store ptr %9, ptr %11, align 8, !tbaa !548
  %12 = getelementptr inbounds nuw %"struct.std::_Rb_tree_header", ptr %3, i32 0, i32 1
  store i64 0, ptr %12, align 8, !tbaa !549
  ret void
}

; Function Attrs: mustprogress nounwind uwtable
define linkonce_odr void @_ZNSt15__new_allocatorISt13_Rb_tree_nodeISt4pairIKSt10type_indexSt8functionIFlRKN3gmx3AnyEEEEEEC2Ev(ptr noundef nonnull align 1 dereferenceable(1) %0) unnamed_addr #2 comdat align 2 {
  %2 = alloca ptr, align 8
  store ptr %0, ptr %2, align 8, !tbaa !767
  ret void
}

; Function Attrs: mustprogress nounwind uwtable
define linkonce_odr void @_ZNSt15_Rb_tree_headerC2Ev(ptr noundef nonnull align 8 dereferenceable(40) %0) unnamed_addr #2 comdat align 2 personality ptr @__gxx_personality_v0 {
  %2 = alloca ptr, align 8
  store ptr %0, ptr %2, align 8, !tbaa !541
  %3 = load ptr, ptr %2, align 8
  %4 = getelementptr inbounds nuw %"struct.std::_Rb_tree_header", ptr %3, i32 0, i32 0
  %5 = getelementptr inbounds nuw %"struct.std::_Rb_tree_node_base", ptr %4, i32 0, i32 0
  store i32 0, ptr %5, align 8, !tbaa !543
  invoke void @_ZNSt15_Rb_tree_header8_M_resetEv(ptr noundef nonnull align 8 dereferenceable(40) %3)
          to label %6 unwind label %7

6:                                                ; preds = %1
  ret void

7:                                                ; preds = %1
  %8 = landingpad { ptr, i32 }
          catch ptr null
  %9 = extractvalue { ptr, i32 } %8, 0
  call void @__clang_call_terminate(ptr %9) #23
  unreachable
}

; Function Attrs: mustprogress nounwind uwtable
define linkonce_odr void @_ZNSt20_Rb_tree_key_compareISt4lessISt10type_indexEEC2Ev(ptr noundef nonnull align 1 dereferenceable(1) %0) unnamed_addr #2 comdat align 2 {
  %2 = alloca ptr, align 8
  store ptr %0, ptr %2, align 8, !tbaa !539
  ret void
}

; Function Attrs: mustprogress nounwind uwtable
define linkonce_odr void @_ZNSaISt13_Rb_tree_nodeISt4pairIKSt10type_indexSt8functionIFlRKN3gmx3AnyEEEEEEC2Ev(ptr noundef nonnull align 1 dereferenceable(1) %0) unnamed_addr #2 comdat align 2 {
  %2 = alloca ptr, align 8
  store ptr %0, ptr %2, align 8, !tbaa !765
  %3 = load ptr, ptr %2, align 8
  call void @_ZNSt15__new_allocatorISt13_Rb_tree_nodeISt4pairIKSt10type_indexSt8functionIFlRKN3gmx3AnyEEEEEEC2Ev(ptr noundef nonnull align 1 dereferenceable(1) %3) #19
  ret void
}

; Function Attrs: mustprogress nounwind uwtable
define linkonce_odr void @_ZNSt8_Rb_treeISt10type_indexSt4pairIKS0_St8functionIFlRKN3gmx3AnyEEEESt10_Select1stISA_ESt4lessIS0_ESaISA_EE13_Rb_tree_implISE_Lb1EEC2Ev(ptr noundef nonnull align 8 dereferenceable(48) %0) unnamed_addr #2 comdat align 2 {
  %2 = alloca ptr, align 8
  store ptr %0, ptr %2, align 8, !tbaa !763
  %3 = load ptr, ptr %2, align 8
  call void @_ZNSaISt13_Rb_tree_nodeISt4pairIKSt10type_indexSt8functionIFlRKN3gmx3AnyEEEEEEC2Ev(ptr noundef nonnull align 1 dereferenceable(1) %3) #19
  call void @_ZNSt20_Rb_tree_key_compareISt4lessISt10type_indexEEC2Ev(ptr noundef nonnull align 1 dereferenceable(1) %3) #19
  %4 = getelementptr inbounds i8, ptr %3, i64 8
  call void @_ZNSt15_Rb_tree_headerC2Ev(ptr noundef nonnull align 8 dereferenceable(40) %4) #19
  ret void
}

; Function Attrs: mustprogress nounwind uwtable
define linkonce_odr void @_ZNSt8_Rb_treeISt10type_indexSt4pairIKS0_St8functionIFlRKN3gmx3AnyEEEESt10_Select1stISA_ESt4lessIS0_ESaISA_EEC2Ev(ptr noundef nonnull align 8 dereferenceable(48) %0) unnamed_addr #2 comdat align 2 {
  %2 = alloca ptr, align 8
  store ptr %0, ptr %2, align 8, !tbaa !761
  %3 = load ptr, ptr %2, align 8
  %4 = getelementptr inbounds nuw %"class.std::_Rb_tree.51", ptr %3, i32 0, i32 0
  call void @_ZNSt8_Rb_treeISt10type_indexSt4pairIKS0_St8functionIFlRKN3gmx3AnyEEEESt10_Select1stISA_ESt4lessIS0_ESaISA_EE13_Rb_tree_implISE_Lb1EEC2Ev(ptr noundef nonnull align 8 dereferenceable(48) %4) #19
  ret void
}

; Function Attrs: mustprogress nounwind uwtable
define linkonce_odr void @_ZNSt3mapISt10type_indexSt8functionIFlRKN3gmx3AnyEEESt4lessIS0_ESaISt4pairIKS0_S7_EEEC2Ev(ptr noundef nonnull align 8 dereferenceable(48) %0) unnamed_addr #2 comdat align 2 {
  %2 = alloca ptr, align 8
  store ptr %0, ptr %2, align 8, !tbaa !759
  %3 = load ptr, ptr %2, align 8
  %4 = getelementptr inbounds nuw %"class.std::map.50", ptr %3, i32 0, i32 0
  call void @_ZNSt8_Rb_treeISt10type_indexSt4pairIKS0_St8functionIFlRKN3gmx3AnyEEEESt10_Select1stISA_ESt4lessIS0_ESaISA_EEC2Ev(ptr noundef nonnull align 8 dereferenceable(48) %4) #19
  ret void
}

; Function Attrs: inlinehint mustprogress nounwind uwtable
define linkonce_odr void @_ZN3gmx26OptionValueConverterSimpleIlEC2Ev(ptr noundef nonnull align 8 dereferenceable(48) %0) unnamed_addr #9 comdat align 2 {
  %2 = alloca ptr, align 8
  store ptr %0, ptr %2, align 8, !tbaa !74
  %3 = load ptr, ptr %2, align 8
  %4 = getelementptr inbounds nuw %"class.gmx::OptionValueConverterSimple.49", ptr %3, i32 0, i32 0
  call void @_ZNSt3mapISt10type_indexSt8functionIFlRKN3gmx3AnyEEESt4lessIS0_ESaISt4pairIKS0_S7_EEEC2Ev(ptr noundef nonnull align 8 dereferenceable(48) %4) #19
  ret void
}

; Function Attrs: mustprogress uwtable
define linkonce_odr void @_ZN3gmx27OptionStorageTemplateSimpleIlEC2INS_11Int64OptionEEERKNS_14OptionTemplateIlT_EENS_13FlagsTemplateINS_10OptionFlagEEE(ptr noundef nonnull align 8 dereferenceable(193) %0, ptr noundef nonnull align 8 dereferenceable(88) %1, i64 %2) unnamed_addr #0 comdat align 2 {
  %4 = alloca %"class.gmx::FlagsTemplate", align 8
  %5 = alloca ptr, align 8
  %6 = alloca ptr, align 8
  %7 = alloca %"class.gmx::FlagsTemplate", align 8
  %8 = getelementptr inbounds nuw %"class.gmx::FlagsTemplate", ptr %4, i32 0, i32 0
  store i64 %2, ptr %8, align 8
  store ptr %0, ptr %5, align 8, !tbaa !357
  store ptr %1, ptr %6, align 8, !tbaa !650
  %9 = load ptr, ptr %5, align 8
  %10 = load ptr, ptr %6, align 8, !tbaa !650
  call void @llvm.memcpy.p0.p0.i64(ptr align 8 %7, ptr align 8 %4, i64 8, i1 false), !tbaa.struct !135
  %11 = getelementptr inbounds nuw %"class.gmx::FlagsTemplate", ptr %7, i32 0, i32 0
  %12 = load i64, ptr %11, align 8
  call void @_ZN3gmx21OptionStorageTemplateIlEC2INS_11Int64OptionEEERKNS_14OptionTemplateIlT_EENS_13FlagsTemplateINS_10OptionFlagEEE(ptr noundef nonnull align 8 dereferenceable(144) %9, ptr noundef nonnull align 8 dereferenceable(88) %10, i64 %12)
  store ptr getelementptr inbounds inrange(-16, 144) ({ [20 x ptr] }, ptr @_ZTVN3gmx27OptionStorageTemplateSimpleIlEE, i32 0, i32 0, i32 2), ptr %9, align 8, !tbaa !33
  %13 = getelementptr inbounds nuw %"class.gmx::OptionStorageTemplateSimple.58", ptr %9, i32 0, i32 1
  call void @_ZN3gmx26OptionValueConverterSimpleIlEC2Ev(ptr noundef nonnull align 8 dereferenceable(48) %13) #19
  %14 = getelementptr inbounds nuw %"class.gmx::OptionStorageTemplateSimple.58", ptr %9, i32 0, i32 2
  store i8 0, ptr %14, align 8, !tbaa !652
  ret void
}

; Function Attrs: mustprogress nounwind uwtable
define linkonce_odr void @_ZN3gmx13FlagsTemplateINS_10OptionFlagEEC2Ev(ptr noundef nonnull align 8 dereferenceable(8) %0) unnamed_addr #2 comdat align 2 {
  %2 = alloca ptr, align 8
  store ptr %0, ptr %2, align 8, !tbaa !128
  %3 = load ptr, ptr %2, align 8
  %4 = getelementptr inbounds nuw %"class.gmx::FlagsTemplate", ptr %3, i32 0, i32 0
  store i64 0, ptr %4, align 8, !tbaa !130
  ret void
}

; Function Attrs: mustprogress uwtable
define linkonce_odr void @_ZN3gmx18Int64OptionStorageC2ERKNS_11Int64OptionE(ptr noundef nonnull align 8 dereferenceable(216) %0, ptr noundef nonnull align 8 dereferenceable(88) %1) unnamed_addr #0 comdat align 2 personality ptr @__gxx_personality_v0 {
  %3 = alloca ptr, align 8
  %4 = alloca ptr, align 8
  %5 = alloca %"class.gmx::FlagsTemplate", align 8
  %6 = alloca ptr, align 8
  %7 = alloca i32, align 4
  store ptr %0, ptr %3, align 8, !tbaa !70
  store ptr %1, ptr %4, align 8, !tbaa !82
  %8 = load ptr, ptr %3, align 8
  %9 = load ptr, ptr %4, align 8, !tbaa !82
  call void @_ZN3gmx13FlagsTemplateINS_10OptionFlagEEC2Ev(ptr noundef nonnull align 8 dereferenceable(8) %5)
  %10 = getelementptr inbounds nuw %"class.gmx::FlagsTemplate", ptr %5, i32 0, i32 0
  %11 = load i64, ptr %10, align 8
  call void @_ZN3gmx27OptionStorageTemplateSimpleIlEC2INS_11Int64OptionEEERKNS_14OptionTemplateIlT_EENS_13FlagsTemplateINS_10OptionFlagEEE(ptr noundef nonnull align 8 dereferenceable(193) %8, ptr noundef nonnull align 8 dereferenceable(88) %9, i64 %11)
  store ptr getelementptr inbounds inrange(-16, 144) ({ [20 x ptr] }, ptr @_ZTVN3gmx18Int64OptionStorageE, i32 0, i32 0, i32 2), ptr %8, align 8, !tbaa !33
  %12 = getelementptr inbounds nuw %"class.gmx::Int64OptionStorage", ptr %8, i32 0, i32 1
  invoke void @_ZN3gmx15Int64OptionInfoC1EPNS_18Int64OptionStorageE(ptr noundef nonnull align 8 dereferenceable(16) %12, ptr noundef %8)
          to label %13 unwind label %14

13:                                               ; preds = %2
  ret void

14:                                               ; preds = %2
  %15 = landingpad { ptr, i32 }
          cleanup
  %16 = extractvalue { ptr, i32 } %15, 0
  store ptr %16, ptr %6, align 8
  %17 = extractvalue { ptr, i32 } %15, 1
  store i32 %17, ptr %7, align 4
  call void @_ZN3gmx27OptionStorageTemplateSimpleIlED2Ev(ptr noundef nonnull align 8 dereferenceable(193) %8) #19
  br label %18

18:                                               ; preds = %14
  %19 = load ptr, ptr %6, align 8
  %20 = load i32, ptr %7, align 4
  %21 = insertvalue { ptr, i32 } poison, ptr %19, 0
  %22 = insertvalue { ptr, i32 } %21, i32 %20, 1
  resume { ptr, i32 } %22
}

; Function Attrs: mustprogress uwtable
define noundef ptr @_ZNK3gmx11Int64Option13createStorageERKNS_22OptionManagerContainerE(ptr noundef nonnull align 8 dereferenceable(88) %0, ptr noundef nonnull align 1 %1) unnamed_addr #0 align 2 personality ptr @__gxx_personality_v0 {
  %3 = alloca ptr, align 8
  %4 = alloca ptr, align 8
  %5 = alloca ptr, align 8
  %6 = alloca i32, align 4
  store ptr %0, ptr %3, align 8, !tbaa !82
  store ptr %1, ptr %4, align 8, !tbaa !42
  %7 = load ptr, ptr %3, align 8
  %8 = call noalias noundef nonnull ptr @_Znwm(i64 noundef 216) #21
  invoke void @_ZN3gmx18Int64OptionStorageC2ERKNS_11Int64OptionE(ptr noundef nonnull align 8 dereferenceable(216) %8, ptr noundef nonnull align 8 dereferenceable(88) %7)
          to label %9 unwind label %10

9:                                                ; preds = %2
  ret ptr %8

10:                                               ; preds = %2
  %11 = landingpad { ptr, i32 }
          cleanup
  %12 = extractvalue { ptr, i32 } %11, 0
  store ptr %12, ptr %5, align 8
  %13 = extractvalue { ptr, i32 } %11, 1
  store i32 %13, ptr %6, align 4
  call void @_ZdlPvm(ptr noundef %8, i64 noundef 216) #22
  br label %14

14:                                               ; preds = %10
  %15 = load ptr, ptr %5, align 8
  %16 = load i32, ptr %6, align 4
  %17 = insertvalue { ptr, i32 } poison, ptr %15, 0
  %18 = insertvalue { ptr, i32 } %17, i32 %16, 1
  resume { ptr, i32 } %18
}